Certificate:
    Data:
        Version: 1 (0x0)
        Serial Number: 1 (0x1)
    Signature Algorithm: sha1WithRSAEncryption
        Issuer: C=US, ST=California, L=Monterey, O=CyberData Corporation, CN=CyberData
        Validity
            Not Before: Jun  4 21:24:07 2018 GMT
            Not After : Feb 28 21:24:07 2021 GMT
        Subject: C=US, ST=California, O=CyberData Corporation, OU=Device, CN=localhost
        Subject Public Key Info:
            Public Key Algorithm: rsaEncryption
                Public-Key: (4096 bit)
                Modulus:
                    00:af:5a:f4:5e:a0:12:82:7f:cb:67:0e:88:7c:cf:
                    1d:9c:5b:65:d2:0b:e2:d9:e9:57:f3:68:a3:42:b4:
                    69:99:b2:4c:e4:18:8a:a4:87:ad:23:59:a2:54:5e:
                    b3:28:fd:70:34:7e:5b:1f:70:17:de:ce:3b:cb:bf:
                    c5:9a:35:4a:6a:5b:24:7a:f4:6b:6b:93:20:7b:8d:
                    63:3b:61:8c:ae:c2:3d:c3:45:a7:e7:9c:23:79:a2:
                    80:76:0f:52:6e:81:cf:e5:cd:8e:97:db:fa:1a:6a:
                    54:66:08:20:65:9c:84:3c:71:30:4f:bd:82:5b:5d:
                    da:cc:35:e8:77:0b:a8:6d:0e:68:c9:a6:cb:88:0d:
                    16:13:37:e8:63:63:53:17:aa:88:00:98:93:c7:30:
                    fe:ff:a7:a0:5e:ba:f0:29:84:c8:a7:fd:d4:33:cc:
                    28:76:05:19:96:be:49:32:7e:f3:d9:9b:a2:b9:ba:
                    cd:29:c7:db:bd:29:7e:90:9e:23:83:16:47:8c:83:
                    c2:66:bd:30:33:e0:47:92:57:9b:03:9c:4f:75:ad:
                    55:1d:14:5b:a2:af:a1:55:81:fd:18:47:c5:b1:df:
                    5f:3f:c8:dc:fb:89:34:11:a3:c3:36:40:3d:26:8c:
                    4c:c5:15:2d:5f:d3:c4:fc:cc:6a:11:84:bc:bf:62:
                    02:6c:2b:eb:62:47:2c:cd:bd:09:51:f4:85:c8:fd:
                    69:77:7c:ae:15:7b:c3:1c:52:43:00:4f:5e:44:c1:
                    a8:72:c0:43:b3:a5:92:59:96:46:01:da:18:3b:0c:
                    2c:a8:33:ac:75:54:b3:6b:49:0f:73:a6:a7:9d:77:
                    55:84:01:0d:19:2b:a6:c9:a8:c4:8f:11:a5:f4:f0:
                    52:eb:74:30:fa:ff:7c:06:b3:22:97:cf:b6:6b:5e:
                    6f:93:79:b1:41:ad:9c:6b:51:f7:56:26:ba:10:18:
                    75:e0:87:a4:be:f1:1d:b8:7c:9f:df:80:7b:89:06:
                    f6:fa:14:9e:1d:23:6d:a4:eb:38:1c:a9:85:10:62:
                    a9:0f:ae:c1:ab:66:b1:ea:8c:00:91:53:a4:86:ff:
                    fc:30:b5:44:b7:38:07:e7:ed:34:b9:37:20:21:02:
                    81:18:3c:d0:79:fa:d0:7c:7c:b9:cd:72:9c:1e:59:
                    85:1b:2a:b4:52:d6:72:0a:b4:b5:48:bc:51:31:91:
                    68:68:62:ad:bf:40:af:d1:1a:89:fa:0f:80:a6:32:
                    17:cb:fd:72:6c:ba:58:c3:2b:ad:d8:dd:68:b3:d0:
                    b4:82:92:cd:64:f0:01:44:fb:62:b9:a1:2a:9f:6a:
                    25:ca:40:4b:ef:60:d2:73:b7:a6:8c:1b:ca:da:0a:
                    5c:8e:c7
                Exponent: 65537 (0x10001)
    Signature Algorithm: sha1WithRSAEncryption
         c4:07:6d:fa:0b:69:d1:7a:76:30:e0:44:e7:9b:8e:2d:7b:10:
         07:dc:01:3f:d6:ad:f1:0f:0b:d9:75:a0:6a:11:93:37:f4:cc:
         1f:6b:93:f8:6c:e6:29:28:8e:90:32:32:ec:7a:9d:1d:eb:1f:
         2b:c6:96:7d:40:67:2c:ee:e2:88:18:6b:10:28:1c:31:4b:12:
         6a:8b:7f:6d:78:48:00:93:f1:60:bb:b4:7c:5b:f0:f3:91:e3:
         e3:23:a3:db:ff:2e:5e:ee:f1:84:53:b4:af:15:65:d3:3f:f2:
         7e:16:9e:ce:66:0e:25:0f:af:83:fe:ac:37:ba:6d:bc:51:05:
         87:3a:be:70:fb:98:7a:48:6d:46:b4:2e:41:8b:4b:3c:ae:44:
         6f:c5:20:46:c6:23:75:07:04:a4:9c:71:44:4b:b9:f8:0f:42:
         f4:34:6b:4e:49:9b:13:a3:e5:7b:e4:f1:f7:c0:e6:1e:3c:c5:
         25:84:be:6c:5a:32:aa:42:3c:46:e2:7c:37:da:eb:82:20:bd:
         ea:8c:5e:de:09:e9:8d:7f:37:38:1d:e1:b4:dc:d9:cd:53:12:
         e2:6f:a6:df:92:76:da:8d:4d:17:98:71:bc:8f:ef:74:26:b7:
         27:65:ce:ad:1e:73:54:98:9f:b5:1c:b8:db:55:aa:06:3b:02:
         29:06:69:b2:32:29:9f:dd:a1:c8:6e:fa:3d:83:7f:dd:cc:77:
         af:44:ff:c8:d5:07:f7:85:6d:06:68:c6:b1:84:fa:55:a9:c8:
         d9:cf:39:76:9d:90:24:d7:88:e4:b6:fb:1c:f4:3a:72:31:dd:
         22:55:91:51:f8:eb:1f:aa:bf:f3:68:42:51:73:a0:76:de:55:
         c5:b6:af:1d:32:9d:3e:7e:11:63:75:0f:fa:a2:09:ff:0e:28:
         c8:8e:e4:c5:47:d2:30:0c:45:9d:d3:ed:56:0c:3d:33:ea:24:
         84:37:83:fe:4d:79:ab:0b:65:95:e0:0a:24:46:67:50:1d:bd:
         55:16:45:be:fe:bc:5c:41:4b:49:06:fe:fd:7f:dc:7a:cc:4a:
         fc:24:fe:cc:32:25:c1:6e:f3:0b:e0:bb:82:3f:bf:70:6a:96:
         0f:ba:f6:3f:c6:60:06:3e:53:35:e0:41:06:f0:aa:b2:38:ab:
         63:39:20:2b:51:2b:38:de:ad:04:d1:03:44:36:f8:01:bc:c9:
         fb:c1:6a:79:97:48:54:83:92:04:3a:72:b5:fa:ff:a7:d8:92:
         60:3d:a4:2a:c6:67:ac:36:62:0c:b4:e2:4e:37:eb:9e:ca:66:
         b4:35:90:de:41:50:5b:d9:95:d7:01:09:66:33:a7:c8:4a:b8:
         9e:b9:84:ba:cb:1b:26:11
-----BEGIN CERTIFICATE-----
MIIFRDCCAywCAQEwDQYJKoZIhvcNAQEFBQAwaTELMAkGA1UEBhMCVVMxEzARBgNV
BAgMCkNhbGlmb3JuaWExETAPBgNVBAcMCE1vbnRlcmV5MR4wHAYDVQQKDBVDeWJl
ckRhdGEgQ29ycG9yYXRpb24xEjAQBgNVBAMMCUN5YmVyRGF0YTAeFw0xODA2MDQy
MTI0MDdaFw0yMTAyMjgyMTI0MDdaMGcxCzAJBgNVBAYTAlVTMRMwEQYDVQQIDApD
YWxpZm9ybmlhMR4wHAYDVQQKDBVDeWJlckRhdGEgQ29ycG9yYXRpb24xDzANBgNV
BAsMBkRldmljZTESMBAGA1UEAwwJbG9jYWxob3N0MIICIjANBgkqhkiG9w0BAQEF
AAOCAg8AMIICCgKCAgEAr1r0XqASgn/LZw6IfM8dnFtl0gvi2elX82ijQrRpmbJM
5BiKpIetI1miVF6zKP1wNH5bH3AX3s47y7/FmjVKalskevRra5Mge41jO2GMrsI9
w0Wn55wjeaKAdg9SboHP5c2Ol9v6GmpUZgggZZyEPHEwT72CW13azDXodwuobQ5o
yabLiA0WEzfoY2NTF6qIAJiTxzD+/6egXrrwKYTIp/3UM8wodgUZlr5JMn7z2Zui
ubrNKcfbvSl+kJ4jgxZHjIPCZr0wM+BHklebA5xPda1VHRRboq+hVYH9GEfFsd9f
P8jc+4k0EaPDNkA9JoxMxRUtX9PE/MxqEYS8v2ICbCvrYkcszb0JUfSFyP1pd3yu
FXvDHFJDAE9eRMGocsBDs6WSWZZGAdoYOwwsqDOsdVSza0kPc6annXdVhAENGSum
yajEjxGl9PBS63Qw+v98BrMil8+2a15vk3mxQa2ca1H3Via6EBh14IekvvEduHyf
34B7iQb2+hSeHSNtpOs4HKmFEGKpD67Bq2ax6owAkVOkhv/8MLVEtzgH5+00uTcg
IQKBGDzQefrQfHy5zXKcHlmFGyq0UtZyCrS1SLxRMZFoaGKtv0Cv0RqJ+g+ApjIX
y/1ybLpYwyut2N1os9C0gpLNZPABRPtiuaEqn2olykBL72DSc7emjBvK2gpcjscC
AwEAATANBgkqhkiG9w0BAQUFAAOCAgEAxAdt+gtp0Xp2MOBE55uOLXsQB9wBP9at
8Q8L2XWgahGTN/TMH2uT+GzmKSiOkDIy7HqdHesfK8aWfUBnLO7iiBhrECgcMUsS
aot/bXhIAJPxYLu0fFvw85Hj4yOj2/8uXu7xhFO0rxVl0z/yfhaezmYOJQ+vg/6s
N7ptvFEFhzq+cPuYekhtRrQuQYtLPK5Eb8UgRsYjdQcEpJxxREu5+A9C9DRrTkmb
E6Ple+Tx98DmHjzFJYS+bFoyqkI8RuJ8N9rrgiC96oxe3gnpjX83OB3htNzZzVMS
4m+m35J22o1NF5hxvI/vdCa3J2XOrR5zVJiftRy421WqBjsCKQZpsjIpn92hyG76
PYN/3cx3r0T/yNUH94VtBmjGsYT6VanI2c85dp2QJNeI5Lb7HPQ6cjHdIlWRUfjr
H6q/82hCUXOgdt5VxbavHTKdPn4RY3UP+qIJ/w4oyI7kxUfSMAxFndPtVgw9M+ok
hDeD/k15qwtlleAKJEZnUB29VRZFvv68XEFLSQb+/X/cesxK/CT+zDIlwW7zC+C7
gj+/cGqWD7r2P8ZgBj5TNeBBBvCqsjirYzkgK1ErON6tBNEDRDb4AbzJ+8FqeZdI
VIOSBDpytfr/p9iSYD2kKsZnrDZiDLTiTjfrnspmtDWQ3kFQW9mV1wEJZjOnyEq4
nrmEussbJhE=
-----END CERTIFICATE-----
