Certificate:
    Data:
        Version: 1 (0x0)
        Serial Number: 2 (0x2)
    Signature Algorithm: sha1WithRSAEncryption
        Issuer: C=US, ST=California, L=Monterey, O=CyberData Corporation, CN=CyberData
        Validity
            Not Before: Jun  4 21:24:23 2018 GMT
            Not After : Feb 28 21:24:23 2021 GMT
        Subject: C=US, ST=California, O=CyberData Corporation, CN=localhost
        Subject Public Key Info:
            Public Key Algorithm: rsaEncryption
                Public-Key: (4096 bit)
                Modulus:
                    00:ba:aa:12:e9:d7:4b:d6:68:ff:98:a3:59:6a:ae:
                    a9:08:11:50:77:7e:a1:bc:17:7f:22:46:a3:f6:cc:
                    cc:da:bc:9d:dc:8d:6c:f8:10:00:21:6b:94:76:a6:
                    d8:36:f2:51:44:af:f0:a6:92:1a:ae:91:2a:de:22:
                    41:80:87:45:d3:fa:23:8c:40:73:46:45:29:86:20:
                    33:fe:a5:85:8d:65:ff:f0:06:d8:3a:0a:af:07:ef:
                    99:70:f2:64:92:5d:fd:b8:45:d3:42:d4:3b:3f:aa:
                    5e:ad:b4:47:97:dd:11:51:a5:b1:6c:ef:a1:d6:f9:
                    b9:31:42:fa:57:e0:e6:43:5b:80:9d:16:78:05:a9:
                    e4:fa:7d:ea:33:d5:62:f7:f4:36:ce:23:93:18:a6:
                    0c:6e:32:12:b8:a7:85:a8:47:54:78:ce:6c:30:42:
                    8a:c3:92:6b:7b:1e:60:89:3e:46:73:06:99:0a:93:
                    70:7a:70:f7:61:89:4c:c6:fa:b9:b6:e5:f7:1a:c8:
                    de:d8:9f:49:7b:a4:22:a0:23:19:f8:b0:1d:c1:f6:
                    62:ba:c5:e6:7b:ea:65:aa:d4:da:d5:66:ef:9e:08:
                    4c:86:ab:d6:6f:42:27:2e:2c:4d:3c:79:61:c7:dd:
                    93:c1:70:86:1e:16:f6:60:06:80:19:33:02:d8:a6:
                    be:83:78:56:51:79:ce:47:41:68:52:a7:45:1b:8c:
                    25:a4:49:25:18:14:77:86:88:e1:19:80:26:d3:ef:
                    af:4d:41:ab:b9:0e:49:b1:db:ff:ee:05:71:ef:fd:
                    b2:07:bb:04:f0:f4:cf:8d:21:9c:c1:f0:ef:8f:a7:
                    18:8c:f0:95:f7:86:79:df:63:f0:0e:a2:17:5e:fc:
                    02:f0:4a:04:4d:52:96:44:1a:33:f0:14:0e:97:61:
                    a7:5f:e9:26:3d:9a:93:bd:3a:b7:66:dd:3a:16:93:
                    1c:b5:05:9a:3c:69:75:f5:83:94:66:0f:49:32:78:
                    1d:c5:2d:e9:af:9c:7e:a8:eb:fb:23:7a:c7:3f:f2:
                    b5:91:0f:5f:29:f3:7b:f1:51:16:8b:b2:4d:7c:24:
                    a4:af:43:c2:c0:82:ce:48:f1:9f:cd:6e:c9:fc:e4:
                    f2:d9:82:ae:b5:8b:b2:9c:02:69:1a:41:1a:c9:5a:
                    0a:de:de:56:3d:0e:b1:9a:d1:93:7c:3a:18:63:82:
                    21:39:a9:f2:4b:c9:cc:e4:a3:7d:0e:1d:7f:7f:ad:
                    d9:48:f5:28:67:55:57:3d:87:9a:6a:fb:f1:63:86:
                    92:c8:19:08:17:5b:12:46:7b:a7:1d:b6:79:55:9b:
                    df:ea:a5:40:b0:02:86:56:6a:ed:dc:75:86:87:f2:
                    76:97:c5
                Exponent: 65537 (0x10001)
    Signature Algorithm: sha1WithRSAEncryption
         c7:a8:50:e0:77:2f:cd:49:42:6a:64:4d:d4:fb:3f:ef:05:10:
         7f:39:25:f7:61:1d:45:09:a7:d1:4a:cd:dd:05:ad:46:52:11:
         04:30:73:af:07:dc:b0:95:fa:ee:90:8f:65:e2:dc:88:91:cf:
         46:dd:17:91:d7:1a:17:10:6d:bf:03:22:ef:bc:68:bd:5c:32:
         83:9e:c2:b1:ec:62:24:45:02:8f:dc:61:af:e6:54:e0:7c:d3:
         36:bf:80:e5:d8:de:ba:04:2c:2d:72:d1:89:ca:09:f6:15:b9:
         b9:88:65:d5:e9:43:d8:d6:ff:a8:9f:f3:d9:4f:68:ec:b4:c7:
         1d:36:ad:ae:dc:3a:3c:5e:09:e9:fb:ab:04:d1:5e:2c:8b:42:
         23:f7:44:64:c2:de:a8:95:25:82:df:6a:7d:78:e7:1f:84:07:
         a0:c2:6a:47:3d:a5:47:ec:00:96:57:f6:39:b1:e7:f0:ff:4f:
         7d:60:32:a5:f4:50:c9:45:ec:2a:05:4f:2e:40:a0:70:d4:49:
         9f:75:b2:c4:3c:0c:5d:9a:2e:8e:23:67:ba:e1:10:4c:ce:83:
         fa:b9:6d:67:24:09:43:d5:91:65:5b:c7:8d:52:e0:94:7a:a0:
         8f:a0:87:a0:ca:75:5d:6c:1d:c8:86:8e:0e:5f:a4:76:84:4d:
         6f:02:70:d6:00:49:9d:73:4e:19:8a:da:fa:bb:74:4c:03:0e:
         4f:aa:03:4c:ed:c1:bf:03:58:87:b9:39:f6:3f:e3:1c:54:f4:
         33:28:a5:a3:0e:d9:b2:ad:12:12:e5:b9:ca:88:1d:a6:4b:5b:
         7d:4f:f7:33:88:a3:eb:7e:54:5a:1f:19:58:ed:0b:57:0d:c7:
         8a:87:eb:5f:24:41:d4:d8:9f:d9:6f:b3:b4:97:de:61:71:db:
         c4:3e:e7:1e:c9:8e:73:b8:ec:a3:c7:ce:92:d2:44:f5:67:31:
         98:21:36:4f:df:d7:a1:c5:7e:f9:e6:2a:4d:26:9d:1c:76:95:
         cd:f2:0d:3c:3e:61:7c:d4:24:83:95:4c:1e:c7:29:6c:83:d5:
         0f:5a:18:3f:cd:fb:bb:0a:68:d9:73:03:64:f4:6c:e8:ed:a3:
         9d:92:28:b5:d3:bd:34:f9:b5:14:16:9a:5e:95:47:47:85:6b:
         a6:a3:b5:f3:ff:a1:91:37:26:c8:7f:74:12:e1:d7:ca:ca:b4:
         44:cb:c3:6f:d5:a1:74:27:d4:a3:33:c6:7b:33:25:55:bb:0f:
         46:0a:f7:80:f5:0f:07:94:b7:71:89:df:aa:16:db:8a:c2:f8:
         1c:29:89:07:e2:06:99:c5:9f:43:d7:68:01:5d:03:f1:b2:ac:
         f6:39:8e:bd:91:48:81:c0
-----BEGIN CERTIFICATE-----
MIIFMzCCAxsCAQIwDQYJKoZIhvcNAQEFBQAwaTELMAkGA1UEBhMCVVMxEzARBgNV
BAgMCkNhbGlmb3JuaWExETAPBgNVBAcMCE1vbnRlcmV5MR4wHAYDVQQKDBVDeWJl
ckRhdGEgQ29ycG9yYXRpb24xEjAQBgNVBAMMCUN5YmVyRGF0YTAeFw0xODA2MDQy
MTI0MjNaFw0yMTAyMjgyMTI0MjNaMFYxCzAJBgNVBAYTAlVTMRMwEQYDVQQIDApD
YWxpZm9ybmlhMR4wHAYDVQQKDBVDeWJlckRhdGEgQ29ycG9yYXRpb24xEjAQBgNV
BAMMCWxvY2FsaG9zdDCCAiIwDQYJKoZIhvcNAQEBBQADggIPADCCAgoCggIBALqq
EunXS9Zo/5ijWWquqQgRUHd+obwXfyJGo/bMzNq8ndyNbPgQACFrlHam2DbyUUSv
8KaSGq6RKt4iQYCHRdP6I4xAc0ZFKYYgM/6lhY1l//AG2DoKrwfvmXDyZJJd/bhF
00LUOz+qXq20R5fdEVGlsWzvodb5uTFC+lfg5kNbgJ0WeAWp5Pp96jPVYvf0Ns4j
kximDG4yErinhahHVHjObDBCisOSa3seYIk+RnMGmQqTcHpw92GJTMb6ubbl9xrI
3tifSXukIqAjGfiwHcH2YrrF5nvqZarU2tVm754ITIar1m9CJy4sTTx5Ycfdk8Fw
hh4W9mAGgBkzAtimvoN4VlF5zkdBaFKnRRuMJaRJJRgUd4aI4RmAJtPvr01Bq7kO
SbHb/+4Fce/9sge7BPD0z40hnMHw74+nGIzwlfeGed9j8A6iF178AvBKBE1SlkQa
M/AUDpdhp1/pJj2ak706t2bdOhaTHLUFmjxpdfWDlGYPSTJ4HcUt6a+cfqjr+yN6
xz/ytZEPXynze/FRFouyTXwkpK9DwsCCzkjxn81uyfzk8tmCrrWLspwCaRpBGsla
Ct7eVj0OsZrRk3w6GGOCITmp8kvJzOSjfQ4df3+t2Uj1KGdVVz2Hmmr78WOGksgZ
CBdbEkZ7px22eVWb3+qlQLAChlZq7dx1hofydpfFAgMBAAEwDQYJKoZIhvcNAQEF
BQADggIBAMeoUOB3L81JQmpkTdT7P+8FEH85JfdhHUUJp9FKzd0FrUZSEQQwc68H
3LCV+u6Qj2Xi3IiRz0bdF5HXGhcQbb8DIu+8aL1cMoOewrHsYiRFAo/cYa/mVOB8
0za/gOXY3roELC1y0YnKCfYVubmIZdXpQ9jW/6if89lPaOy0xx02ra7cOjxeCen7
qwTRXiyLQiP3RGTC3qiVJYLfan145x+EB6DCakc9pUfsAJZX9jmx5/D/T31gMqX0
UMlF7CoFTy5AoHDUSZ91ssQ8DF2aLo4jZ7rhEEzOg/q5bWckCUPVkWVbx41S4JR6
oI+gh6DKdV1sHciGjg5fpHaETW8CcNYASZ1zThmK2vq7dEwDDk+qA0ztwb8DWIe5
OfY/4xxU9DMopaMO2bKtEhLlucqIHaZLW31P9zOIo+t+VFofGVjtC1cNx4qH618k
QdTYn9lvs7SX3mFx28Q+5x7JjnO47KPHzpLSRPVnMZghNk/f16HFfvnmKk0mnRx2
lc3yDTw+YXzUJIOVTB7HKWyD1Q9aGD/N+7sKaNlzA2T0bOjto52SKLXTvTT5tRQW
ml6VR0eFa6ajtfP/oZE3Jsh/dBLh18rKtETLw2/VoXQn1KMzxnszJVW7D0YK94D1
DweUt3GJ36oW24rC+BwpiQfiBpnFn0PXaAFdA/GyrPY5jr2RSIHA
-----END CERTIFICATE-----
