Certificate:
    Data:
        Version: 1 (0x0)
        Serial Number: 1 (0x1)
    Signature Algorithm: sha1WithRSAEncryption
        Issuer: C=US, ST=California, L=Monterey, O=CyberData Corporation, OU=CyberData CA, CN=CyberData
        Validity
            Not Before: Jun 22 18:52:18 2018 GMT
            Not After : Mar 18 18:52:18 2021 GMT
        Subject: C=US, ST=California, O=CyberData Corporation, OU=Device, CN=localhost
        Subject Public Key Info:
            Public Key Algorithm: rsaEncryption
                Public-Key: (4096 bit)
                Modulus:
                    00:9b:fd:2d:b0:45:8c:2c:eb:3a:9f:47:d9:d4:82:
                    d0:11:d2:d6:dc:0f:c2:12:fb:20:c7:e7:d5:b1:33:
                    e6:69:35:98:12:be:b9:7b:b5:01:89:a5:03:64:f4:
                    57:9f:10:f2:03:67:c9:3f:36:fa:20:dd:5d:6d:88:
                    df:5a:24:44:85:2e:f6:4c:6c:9f:a4:ac:13:e1:22:
                    98:f1:94:52:51:7c:2a:42:d8:56:71:a0:53:a5:c1:
                    02:99:20:b8:47:14:10:0d:70:8e:a2:4a:20:f4:5c:
                    02:f6:35:64:5b:49:3e:95:00:fb:07:ba:32:f1:b8:
                    0a:b5:e0:75:b3:5d:a2:b2:fc:e5:51:bd:70:0a:0f:
                    87:04:46:bf:20:85:89:5b:5b:50:b8:62:97:8c:83:
                    af:b2:4f:28:3f:8e:7e:67:ab:73:c3:7d:2b:0f:d4:
                    ba:b9:01:7d:0f:3a:43:d4:2a:82:97:ba:06:66:14:
                    66:28:08:85:63:f0:47:25:20:f9:cb:4c:1d:a8:c1:
                    1a:f3:3c:9a:76:86:13:2e:99:d5:1f:88:04:6c:f4:
                    56:2b:75:45:33:76:19:ff:c9:f6:6c:c9:e5:f2:23:
                    78:61:32:d6:9f:29:0f:b1:17:18:74:9d:c9:2d:d7:
                    10:2b:76:62:07:27:bf:3c:10:33:0b:2c:72:0b:6c:
                    cb:3f:6f:bb:7a:75:42:e2:e3:70:1a:1a:ff:14:ee:
                    17:2c:5e:9f:18:e5:fc:e0:d0:c3:e1:4f:b7:1a:fe:
                    72:1e:cc:9c:be:3f:62:e9:f9:1f:fa:ca:66:0f:90:
                    15:26:78:32:ee:ee:26:aa:35:dd:f9:b4:f3:c0:43:
                    7b:e3:33:37:69:aa:fa:f8:56:e3:0e:e5:0b:36:97:
                    ee:77:ec:51:c6:a3:f9:c5:61:bb:c5:c0:f4:a0:6c:
                    89:92:34:72:26:5e:25:b6:51:9b:8b:ca:f3:9d:c6:
                    cb:7b:86:ec:51:70:8f:c4:1d:fe:e7:07:84:13:b2:
                    fa:df:80:8e:24:d8:51:78:b5:56:5a:41:4c:d2:7f:
                    73:40:0a:73:9b:19:0a:4c:e4:f8:9d:73:ef:d3:c9:
                    35:f0:22:cd:85:05:85:2f:be:d7:ba:5f:e7:67:6f:
                    cc:b9:5a:fd:94:b6:f8:91:86:c5:d6:23:0a:3e:bd:
                    c3:85:91:d1:4d:13:45:5d:b4:1d:5c:80:1c:ba:76:
                    df:cb:6b:5a:ee:41:ce:d0:45:17:dc:f1:29:5b:57:
                    5e:03:3e:e2:ed:ec:4a:ac:d1:63:5a:78:33:de:09:
                    74:cc:8b:15:d6:01:46:c7:c0:01:cc:ce:f3:04:32:
                    89:da:5b:5a:1e:6d:31:90:2d:26:3b:aa:b6:9c:2c:
                    1a:b9:07
                Exponent: 65537 (0x10001)
    Signature Algorithm: sha1WithRSAEncryption
         76:67:76:e9:79:17:0a:3d:28:ce:19:a9:c4:69:01:18:61:93:
         19:78:cc:e2:f8:fc:5f:3d:7c:6a:da:e7:d6:9d:82:30:77:c0:
         b2:0b:8f:9d:40:e3:59:15:7f:ed:dc:e0:10:2c:20:a8:38:e4:
         67:c0:b5:92:71:c0:cc:9f:52:f5:46:7a:23:49:ab:d5:92:9c:
         dc:39:0c:06:e4:4e:e9:4f:ac:4c:30:80:dd:1d:8e:ab:b5:9e:
         ca:be:93:09:a3:77:77:ea:47:1a:36:77:56:0d:32:b0:8e:2e:
         d9:3e:41:75:83:5e:0d:d8:97:68:64:b4:08:c5:39:57:87:fc:
         b8:33:77:d4:6b:67:fa:50:5b:3f:cc:b3:6f:03:c6:fa:2f:37:
         35:81:71:e9:0f:10:af:08:b3:68:be:47:da:46:de:d3:30:44:
         aa:63:4f:5f:14:a3:a0:f9:4c:7d:43:9b:6f:f4:11:cf:21:25:
         93:33:52:89:6c:91:94:e3:84:e5:da:b0:8c:43:61:d9:e4:2b:
         10:d4:81:09:64:81:13:17:ac:78:e0:1f:86:d4:bf:63:5f:07:
         39:ed:7d:8b:c5:a9:ac:aa:26:7c:7e:08:48:83:98:73:df:e7:
         90:fa:23:da:50:aa:77:f9:86:96:8f:de:6f:e0:9b:f4:eb:96:
         43:de:e1:d1:59:7d:1f:2f:c9:6d:c4:34:3d:a7:54:09:40:f0:
         0b:02:7d:96:b7:ce:8e:f6:9d:09:73:45:4f:71:eb:29:29:6d:
         83:13:c7:67:96:66:97:21:15:a7:a5:02:31:c8:88:bd:05:2d:
         11:5c:ca:8d:40:9b:20:12:31:72:c4:26:18:d7:9a:25:d9:ee:
         f7:dc:1e:8b:6f:4f:c0:32:47:5f:07:cd:28:a4:e5:db:e7:e2:
         5b:0d:dc:81:ba:c2:d9:7a:cc:dc:94:2b:03:71:6e:97:39:3b:
         17:a8:ae:46:61:22:85:c6:71:c3:33:78:87:50:97:47:77:f3:
         33:21:9f:88:60:6e:61:8a:dc:27:6c:a5:39:31:8a:dd:ea:29:
         8a:a4:ec:d6:e3:7a:8f:79:cc:7e:29:bd:24:7e:36:1e:4b:2b:
         31:a4:a7:77:c7:84:06:13:52:6f:c2:71:09:30:4b:ad:ce:56:
         17:54:71:e4:12:04:24:2f:80:cf:3c:41:32:b8:75:49:54:79:
         40:00:72:2d:58:24:cf:20:b5:d4:f9:67:d9:8f:ed:cf:6d:f4:
         19:b5:9a:33:00:b2:1a:38:9c:ee:b6:b9:6e:dc:01:5c:54:40:
         dc:b5:87:ef:a7:46:d0:91:24:62:ae:a0:2a:56:de:f2:0f:3b:
         8a:23:f7:66:a2:11:b9:1f
-----BEGIN CERTIFICATE-----
MIIFXDCCA0QCAQEwDQYJKoZIhvcNAQEFBQAwgYAxCzAJBgNVBAYTAlVTMRMwEQYD
VQQIDApDYWxpZm9ybmlhMREwDwYDVQQHDAhNb250ZXJleTEeMBwGA1UECgwVQ3li
ZXJEYXRhIENvcnBvcmF0aW9uMRUwEwYDVQQLDAxDeWJlckRhdGEgQ0ExEjAQBgNV
BAMMCUN5YmVyRGF0YTAeFw0xODA2MjIxODUyMThaFw0yMTAzMTgxODUyMThaMGcx
CzAJBgNVBAYTAlVTMRMwEQYDVQQIDApDYWxpZm9ybmlhMR4wHAYDVQQKDBVDeWJl
ckRhdGEgQ29ycG9yYXRpb24xDzANBgNVBAsMBkRldmljZTESMBAGA1UEAwwJbG9j
YWxob3N0MIICIjANBgkqhkiG9w0BAQEFAAOCAg8AMIICCgKCAgEAm/0tsEWMLOs6
n0fZ1ILQEdLW3A/CEvsgx+fVsTPmaTWYEr65e7UBiaUDZPRXnxDyA2fJPzb6IN1d
bYjfWiREhS72TGyfpKwT4SKY8ZRSUXwqQthWcaBTpcECmSC4RxQQDXCOokog9FwC
9jVkW0k+lQD7B7oy8bgKteB1s12isvzlUb1wCg+HBEa/IIWJW1tQuGKXjIOvsk8o
P45+Z6tzw30rD9S6uQF9DzpD1CqCl7oGZhRmKAiFY/BHJSD5y0wdqMEa8zyadoYT
LpnVH4gEbPRWK3VFM3YZ/8n2bMnl8iN4YTLWnykPsRcYdJ3JLdcQK3ZiBye/PBAz
CyxyC2zLP2+7enVC4uNwGhr/FO4XLF6fGOX84NDD4U+3Gv5yHsycvj9i6fkf+spm
D5AVJngy7u4mqjXd+bTzwEN74zM3aar6+FbjDuULNpfud+xRxqP5xWG7xcD0oGyJ
kjRyJl4ltlGbi8rzncbLe4bsUXCPxB3+5weEE7L634COJNhReLVWWkFM0n9zQApz
mxkKTOT4nXPv08k18CLNhQWFL77Xul/nZ2/MuVr9lLb4kYbF1iMKPr3DhZHRTRNF
XbQdXIAcunbfy2ta7kHO0EUX3PEpW1deAz7i7exKrNFjWngz3gl0zIsV1gFGx8AB
zM7zBDKJ2ltaHm0xkC0mO6q2nCwauQcCAwEAATANBgkqhkiG9w0BAQUFAAOCAgEA
dmd26XkXCj0ozhmpxGkBGGGTGXjM4vj8Xz18atrn1p2CMHfAsguPnUDjWRV/7dzg
ECwgqDjkZ8C1knHAzJ9S9UZ6I0mr1ZKc3DkMBuRO6U+sTDCA3R2Oq7Weyr6TCaN3
d+pHGjZ3Vg0ysI4u2T5BdYNeDdiXaGS0CMU5V4f8uDN31Gtn+lBbP8yzbwPG+i83
NYFx6Q8QrwizaL5H2kbe0zBEqmNPXxSjoPlMfUObb/QRzyElkzNSiWyRlOOE5dqw
jENh2eQrENSBCWSBExeseOAfhtS/Y18HOe19i8WprKomfH4ISIOYc9/nkPoj2lCq
d/mGlo/eb+Cb9OuWQ97h0Vl9Hy/JbcQ0PadUCUDwCwJ9lrfOjvadCXNFT3HrKSlt
gxPHZ5ZmlyEVp6UCMciIvQUtEVzKjUCbIBIxcsQmGNeaJdnu99wei29PwDJHXwfN
KKTl2+fiWw3cgbrC2XrM3JQrA3Fulzk7F6iuRmEihcZxwzN4h1CXR3fzMyGfiGBu
YYrcJ2ylOTGK3eopiqTs1uN6j3nMfim9JH42HksrMaSnd8eEBhNSb8JxCTBLrc5W
F1Rx5BIEJC+AzzxBMrh1SVR5QAByLVgkzyC11Pln2Y/tz230GbWaMwCyGjic7ra5
btwBXFRA3LWH76dG0JEkYq6gKlbe8g87iiP3ZqIRuR8=
-----END CERTIFICATE-----
