Certificate:
    Data:
        Version: 1 (0x0)
        Serial Number: 0 (0x0)
    Signature Algorithm: sha1WithRSAEncryption
        Issuer: C=US, ST=California, L=Monterey, O=CyberData Corporation, OU=CyberData CA, CN=CyberData
        Validity
            Not Before: Jun 22 18:48:45 2018 GMT
            Not After : Mar 18 18:48:45 2021 GMT
        Subject: C=US, ST=California, O=CyberData Corporation, OU=Server, CN=localhost
        Subject Public Key Info:
            Public Key Algorithm: rsaEncryption
                Public-Key: (4096 bit)
                Modulus:
                    00:b8:4a:95:54:57:72:73:2a:3b:fc:a4:80:9f:ff:
                    b1:14:81:64:3e:31:e6:d2:bb:ca:07:44:c6:74:e4:
                    9b:73:4d:e9:f2:fb:b8:55:dc:84:09:1e:51:5f:23:
                    97:a0:aa:fc:a1:f3:5a:65:67:40:50:66:1b:f5:d3:
                    7e:17:71:7f:a0:32:ff:f0:95:7e:5b:34:aa:a0:56:
                    54:a1:86:48:b2:5a:2c:c1:0d:1d:50:1f:c4:af:0e:
                    c5:8b:88:c5:1d:70:72:31:02:7a:28:12:d2:db:d4:
                    33:c8:68:81:46:ff:3e:24:f7:91:97:60:29:80:96:
                    b5:d0:51:8d:d4:08:f4:ad:06:79:59:f8:c2:9a:43:
                    22:8d:d3:87:9d:ce:64:46:a1:97:af:02:4d:ce:0f:
                    8d:dd:ca:f7:47:3a:11:0b:c4:bb:ab:74:fc:da:f6:
                    41:9a:ee:47:80:5d:c8:65:5f:18:e6:06:69:4b:0c:
                    f7:6a:82:14:07:0c:73:8e:5c:ac:3b:01:dd:61:52:
                    16:1d:30:db:5b:76:3d:6e:fd:1e:24:72:c9:c4:15:
                    29:61:e2:bd:35:d4:f4:cd:e8:d6:1b:34:cd:c0:62:
                    0e:5d:8a:1d:0b:61:15:83:90:44:3b:80:39:c4:b5:
                    e8:ab:c2:a1:17:42:3e:ce:d7:9b:e2:24:29:a3:b8:
                    9b:1a:38:12:60:27:20:fe:cb:c5:c3:c8:56:7f:61:
                    a4:31:7d:29:df:a4:4c:0a:a0:2c:6b:cd:bb:2f:89:
                    b3:75:4d:cc:89:d2:16:8d:a1:1f:fd:b2:c9:e1:cc:
                    45:86:e7:18:3b:77:2a:7d:47:d7:ce:d0:78:7c:eb:
                    e3:a7:c2:23:46:a7:e1:2c:c0:4a:e5:1b:17:98:23:
                    e6:b4:d4:10:ae:2c:e8:e3:31:a1:a6:c9:9a:f0:7b:
                    8d:1b:6f:ba:f2:68:2b:53:0c:bc:15:97:74:77:c1:
                    31:a5:6c:df:98:bc:0e:87:7a:3a:0a:27:7c:77:ef:
                    b0:48:94:e1:c8:c2:15:5d:5f:b8:3b:cf:aa:4d:75:
                    d4:40:46:6a:06:cd:c5:8a:a3:f3:cd:1c:e9:f7:0f:
                    e3:82:8a:40:f1:fb:c8:11:cc:10:4e:fe:5a:86:55:
                    8f:08:72:34:a4:29:62:24:c9:3f:64:25:35:15:5c:
                    4f:11:e0:74:10:e2:bb:e9:75:a6:a7:68:f7:fb:72:
                    58:c4:51:30:4b:da:cc:cb:eb:5a:39:8e:a7:c6:d6:
                    2a:b0:8e:b4:54:0d:99:9d:c3:b9:da:44:1c:52:2a:
                    c1:4b:f3:6f:4e:2b:77:88:07:5e:69:f7:7b:6f:96:
                    c6:9e:ca:31:29:ef:72:5c:e6:76:14:de:5b:c5:2c:
                    6e:56:99
                Exponent: 65537 (0x10001)
    Signature Algorithm: sha1WithRSAEncryption
         13:4e:54:d5:ab:8b:60:54:84:6d:ea:a2:92:8f:7f:7f:67:83:
         d7:db:5a:5e:1d:07:83:e7:f4:9c:d5:61:72:dc:54:57:15:a0:
         04:5c:a9:fe:4a:de:bc:de:c6:c1:44:cb:4f:d4:3b:c6:f2:61:
         6d:88:72:b0:7a:51:49:dc:81:44:2e:05:e5:50:ff:c5:28:c0:
         23:bd:aa:ee:e3:b9:b8:ec:1b:e9:35:cd:a8:39:fb:28:b8:05:
         1a:22:7a:f5:40:88:75:64:6b:ac:78:5d:a7:55:c4:7b:46:c0:
         19:94:7e:a4:1e:a3:01:e1:c4:a0:9b:08:78:be:3e:87:32:a0:
         2b:77:aa:69:31:99:78:aa:60:f8:56:e0:85:1a:ba:0d:da:b1:
         ba:d2:21:b5:d4:b9:df:22:e7:d9:8e:49:5a:95:c2:ca:42:5d:
         7e:07:14:2e:0f:4f:09:6a:b0:15:05:dc:1a:5b:2c:70:0b:62:
         eb:60:1a:35:f2:7a:fe:04:6b:f0:07:f7:ca:bb:29:c9:36:4b:
         c0:c3:e5:c0:57:a9:5d:8b:30:b0:a8:a5:66:37:92:7f:7e:bc:
         b3:ee:48:43:02:ad:6b:d6:18:9f:3d:2a:cd:ae:d7:7e:e5:c3:
         e9:8a:ea:6c:88:f8:7f:a4:5a:47:7e:fb:82:59:c0:26:f9:2a:
         98:50:01:46:72:fb:0b:a2:0c:8a:c0:b0:21:ab:28:53:7c:4b:
         ae:44:11:7e:cb:bf:f1:72:93:92:5b:c4:94:a7:b8:69:b9:cb:
         13:bc:c8:52:f4:04:42:2a:09:a5:69:18:69:4f:c8:85:25:dc:
         73:0e:d4:be:5b:75:21:0c:9d:96:d5:25:de:64:84:33:71:ee:
         5f:15:b1:1b:f3:67:3e:a6:cc:87:4c:5f:f3:58:7f:31:ca:73:
         85:7c:a5:a1:a7:2e:cc:dc:3b:7d:01:74:24:8b:71:31:bc:b3:
         5b:4c:d7:a2:cd:52:97:ad:b5:cc:a7:a5:77:ce:c9:76:be:00:
         0b:4d:c4:79:e3:99:c6:fb:c8:ac:7e:ea:88:47:27:a4:e9:5a:
         52:22:ba:5c:0a:f1:89:71:a1:17:67:df:8b:b5:d7:fb:55:de:
         98:0e:ab:c7:78:9e:47:33:35:88:0e:a8:36:f6:05:d3:fd:bb:
         c9:5c:05:9c:de:07:5e:13:47:4a:9b:9d:f4:4e:62:ed:03:5f:
         43:68:d2:e1:48:de:69:1a:16:99:4c:44:26:f4:c2:de:41:e3:
         4a:a4:b8:e6:4f:c7:9f:8a:98:f6:67:99:92:8e:14:d8:0d:1f:
         8f:b9:3a:21:86:f6:d6:39:d0:66:64:e1:ab:bf:56:33:ac:32:
         2f:c1:8b:66:cd:87:11:7e
-----BEGIN CERTIFICATE-----
MIIFXDCCA0QCAQAwDQYJKoZIhvcNAQEFBQAwgYAxCzAJBgNVBAYTAlVTMRMwEQYD
VQQIDApDYWxpZm9ybmlhMREwDwYDVQQHDAhNb250ZXJleTEeMBwGA1UECgwVQ3li
ZXJEYXRhIENvcnBvcmF0aW9uMRUwEwYDVQQLDAxDeWJlckRhdGEgQ0ExEjAQBgNV
BAMMCUN5YmVyRGF0YTAeFw0xODA2MjIxODQ4NDVaFw0yMTAzMTgxODQ4NDVaMGcx
CzAJBgNVBAYTAlVTMRMwEQYDVQQIDApDYWxpZm9ybmlhMR4wHAYDVQQKDBVDeWJl
ckRhdGEgQ29ycG9yYXRpb24xDzANBgNVBAsMBlNlcnZlcjESMBAGA1UEAwwJbG9j
YWxob3N0MIICIjANBgkqhkiG9w0BAQEFAAOCAg8AMIICCgKCAgEAuEqVVFdycyo7
/KSAn/+xFIFkPjHm0rvKB0TGdOSbc03p8vu4VdyECR5RXyOXoKr8ofNaZWdAUGYb
9dN+F3F/oDL/8JV+WzSqoFZUoYZIsloswQ0dUB/Erw7Fi4jFHXByMQJ6KBLS29Qz
yGiBRv8+JPeRl2ApgJa10FGN1Aj0rQZ5WfjCmkMijdOHnc5kRqGXrwJNzg+N3cr3
RzoRC8S7q3T82vZBmu5HgF3IZV8Y5gZpSwz3aoIUBwxzjlysOwHdYVIWHTDbW3Y9
bv0eJHLJxBUpYeK9NdT0zejWGzTNwGIOXYodC2EVg5BEO4A5xLXoq8KhF0I+zteb
4iQpo7ibGjgSYCcg/svFw8hWf2GkMX0p36RMCqAsa827L4mzdU3MidIWjaEf/bLJ
4cxFhucYO3cqfUfXztB4fOvjp8IjRqfhLMBK5RsXmCPmtNQQrizo4zGhpsma8HuN
G2+68mgrUwy8FZd0d8ExpWzfmLwOh3o6Cid8d++wSJThyMIVXV+4O8+qTXXUQEZq
Bs3FiqPzzRzp9w/jgopA8fvIEcwQTv5ahlWPCHI0pCliJMk/ZCU1FVxPEeB0EOK7
6XWmp2j3+3JYxFEwS9rMy+taOY6nxtYqsI60VA2ZncO52kQcUirBS/NvTit3iAde
afd7b5bGnsoxKe9yXOZ2FN5bxSxuVpkCAwEAATANBgkqhkiG9w0BAQUFAAOCAgEA
E05U1auLYFSEbeqiko9/f2eD19taXh0Hg+f0nNVhctxUVxWgBFyp/krevN7GwUTL
T9Q7xvJhbYhysHpRSdyBRC4F5VD/xSjAI72q7uO5uOwb6TXNqDn7KLgFGiJ69UCI
dWRrrHhdp1XEe0bAGZR+pB6jAeHEoJsIeL4+hzKgK3eqaTGZeKpg+FbghRq6Ddqx
utIhtdS53yLn2Y5JWpXCykJdfgcULg9PCWqwFQXcGlsscAti62AaNfJ6/gRr8Af3
yrspyTZLwMPlwFepXYswsKilZjeSf368s+5IQwKta9YYnz0qza7XfuXD6YrqbIj4
f6RaR377glnAJvkqmFABRnL7C6IMisCwIasoU3xLrkQRfsu/8XKTklvElKe4abnL
E7zIUvQEQioJpWkYaU/IhSXccw7Uvlt1IQydltUl3mSEM3HuXxWxG/NnPqbMh0xf
81h/McpzhXyloacuzNw7fQF0JItxMbyzW0zXos1Sl621zKeld87Jdr4AC03EeeOZ
xvvIrH7qiEcnpOlaUiK6XArxiXGhF2ffi7XX+1XemA6rx3ieRzM1iA6oNvYF0/27
yVwFnN4HXhNHSpud9E5i7QNfQ2jS4UjeaRoWmUxEJvTC3kHjSqS45k/Hn4qY9meZ
ko4U2A0fj7k6IYb21jnQZmThq79WM6wyL8GLZs2HEX4=
-----END CERTIFICATE-----
